; Function Attrs: mustprogress uwtable
define internal fastcc void @_ZNSt10shared_ptrIN32pxrInternal_v0_24__pxrReserved__12_GLOBAL__N_118_PrimvarDataSourceEEC2IS2_vEEPT_(ptr nocapture noundef nonnull writeonly align 8 dereferenceable(16) %0, ptr noundef %1) unnamed_addr #5 align 2 personality ptr @__gxx_personality_v0 {
  store ptr %1, ptr %0, align 8
  %3 = getelementptr inbounds nuw i8, ptr %0, i64 8
  store ptr null, ptr %3, align 8
  %4 = invoke noalias noundef nonnull dereferenceable(24) ptr @_Znwm(i64 noundef 24) #31
          to label %_ZNSt12__shared_ptrIN32pxrInternal_v0_24__pxrReserved__12_GLOBAL__N_118_PrimvarDataSourceELN9__gnu_cxx12_Lock_policyE2EEC2IS2_vEEPT_.exit unwind label %5

5:                                                ; preds = %2
  %6 = landingpad { ptr, i32 }
          catch ptr null
  %7 = extractvalue { ptr, i32 } %6, 0
  %8 = tail call ptr @__cxa_begin_catch(ptr %7) #28
  tail call void @_ZN32pxrInternal_v0_24__pxrReserved__12_GLOBAL__N_118_PrimvarDataSourceD2Ev(ptr noundef nonnull align 8 dereferenceable(40) %1) #28
  tail call void @_ZdlPvm(ptr noundef %1, i64 noundef 40) #32
  invoke void @__cxa_rethrow() #30
          to label %15 unwind label %9

9:                                                ; preds = %5
  %10 = landingpad { ptr, i32 }
          cleanup
  invoke void @__cxa_end_catch()
          to label %11 unwind label %12

11:                                               ; preds = %9
  resume { ptr, i32 } %10

12:                                               ; preds = %9
  %13 = landingpad { ptr, i32 }
          catch ptr null
  %14 = extractvalue { ptr, i32 } %13, 0
  tail call void @__clang_call_terminate(ptr %14) #29
  unreachable

15:                                               ; preds = %5
  unreachable

_ZNSt12__shared_ptrIN32pxrInternal_v0_24__pxrReserved__12_GLOBAL__N_118_PrimvarDataSourceELN9__gnu_cxx12_Lock_policyE2EEC2IS2_vEEPT_.exit: ; preds = %2
  %16 = getelementptr inbounds nuw i8, ptr %4, i64 8
  store i32 1, ptr %16, align 8
  %17 = getelementptr inbounds nuw i8, ptr %4, i64 12
  store i32 1, ptr %17, align 4
  store ptr getelementptr inbounds inrange(-16, 40) (i8, ptr @_ZTVSt15_Sp_counted_ptrIPN32pxrInternal_v0_24__pxrReserved__12_GLOBAL__N_118_PrimvarDataSourceELN9__gnu_cxx12_Lock_policyE2EE, i64 16), ptr %4, align 8
  %18 = getelementptr inbounds nuw i8, ptr %4, i64 16
  store ptr %1, ptr %18, align 8
  store ptr %4, ptr %3, align 8
  ret void
}